target datalayout = "e-m:e-p270:32:32-p271:32:32-p272:64:64-i64:64-i128:128-f80:128-n8:16:32:64-S128"
target triple = "x86_64-pc-linux-gnu"

%class.StubQueue = type { ptr, ptr, i32, i32, i32, i32, i32, ptr }

; Function Attrs: mustprogress nounwind uwtable
define linkonce_odr hidden void @_ZNK9StubQueue16check_stub_alignEP4Stub(ptr noundef nonnull align 8 dereferenceable(48) %0, ptr noundef %1) #1 comdat align 2 {
  %3 = alloca ptr, align 8
  %4 = alloca ptr, align 8
  store ptr %0, ptr %3, align 8
  store ptr %1, ptr %4, align 8
  ret void
}

; Function Attrs: mustprogress nounwind uwtable
define linkonce_odr hidden void @_ZNK9StubQueue11check_indexEi(ptr noundef nonnull align 8 dereferenceable(48) %0, i32 noundef %1) #1 comdat align 2 {
  %3 = alloca ptr, align 8
  %4 = alloca i32, align 4
  store ptr %0, ptr %3, align 8
  store i32 %1, ptr %4, align 4
  ret void
}

; Function Attrs: mustprogress nounwind uwtable
define linkonce_odr hidden noundef ptr @_ZNK9StubQueue7stub_atEi(ptr noundef nonnull align 8 dereferenceable(48) %0, i32 noundef %1) #1 comdat align 2 {
  %3 = alloca ptr, align 8
  %4 = alloca i32, align 4
  %5 = alloca ptr, align 8
  store ptr %0, ptr %3, align 8
  store i32 %1, ptr %4, align 4
  %6 = load ptr, ptr %3, align 8
  %7 = load i32, ptr %4, align 4
  call void @_ZNK9StubQueue11check_indexEi(ptr noundef nonnull align 8 dereferenceable(48) %6, i32 noundef %7)
  %8 = getelementptr inbounds %class.StubQueue, ptr %6, i32 0, i32 1
  %9 = load ptr, ptr %8, align 8
  %10 = load i32, ptr %4, align 4
  %11 = sext i32 %10 to i64
  %12 = getelementptr inbounds i8, ptr %9, i64 %11
  store ptr %12, ptr %5, align 8
  %13 = load ptr, ptr %5, align 8
  call void @_ZNK9StubQueue16check_stub_alignEP4Stub(ptr noundef nonnull align 8 dereferenceable(48) %6, ptr noundef %13)
  %14 = load ptr, ptr %5, align 8
  ret ptr %14
}

; Function Attrs: mustprogress nounwind uwtable
define linkonce_odr hidden noundef i32 @_ZNK9StubQueue9stub_sizeEP4Stub(ptr noundef nonnull align 8 dereferenceable(48) %0, ptr noundef %1) #1 comdat align 2 {
  %3 = alloca ptr, align 8
  %4 = alloca ptr, align 8
  store ptr %0, ptr %3, align 8
  store ptr %1, ptr %4, align 8
  %5 = load ptr, ptr %3, align 8
  %6 = getelementptr inbounds %class.StubQueue, ptr %5, i32 0, i32 0
  %7 = load ptr, ptr %6, align 8
  %8 = load ptr, ptr %4, align 8
  %9 = load ptr, ptr %7, align 8
  %10 = getelementptr inbounds ptr, ptr %9, i64 2
  %11 = load ptr, ptr %10, align 8
  %12 = call noundef i32 %11(ptr noundef nonnull align 8 dereferenceable(8) %7, ptr noundef %8)
  ret i32 %12
}

; Function Attrs: mustprogress nounwind uwtable
define linkonce_odr hidden void @_ZN9StubQueue13stub_finalizeEP4Stub(ptr noundef nonnull align 8 dereferenceable(48) %0, ptr noundef %1) #1 comdat align 2 {
  %3 = alloca ptr, align 8
  %4 = alloca ptr, align 8
  store ptr %0, ptr %3, align 8
  store ptr %1, ptr %4, align 8
  %5 = load ptr, ptr %3, align 8
  %6 = getelementptr inbounds %class.StubQueue, ptr %5, i32 0, i32 0
  %7 = load ptr, ptr %6, align 8
  %8 = load ptr, ptr %4, align 8
  %9 = load ptr, ptr %7, align 8
  %10 = getelementptr inbounds ptr, ptr %9, i64 1
  %11 = load ptr, ptr %10, align 8
  call void %11(ptr noundef nonnull align 8 dereferenceable(8) %7, ptr noundef %8)
  ret void
}

; Function Attrs: mustprogress nounwind uwtable
define linkonce_odr hidden noundef ptr @_ZNK9StubQueue5firstEv(ptr noundef nonnull align 8 dereferenceable(48) %0) #1 comdat align 2 {
  %2 = alloca ptr, align 8
  store ptr %0, ptr %2, align 8
  %3 = load ptr, ptr %2, align 8
  %4 = call noundef i32 @_ZNK9StubQueue15number_of_stubsEv(ptr noundef nonnull align 8 dereferenceable(48) %3)
  %5 = icmp sgt i32 %4, 0
  br i1 %5, label %6, label %10

6:                                                ; preds = %1
  %7 = getelementptr inbounds %class.StubQueue, ptr %3, i32 0, i32 4
  %8 = load i32, ptr %7, align 8
  %9 = call noundef ptr @_ZNK9StubQueue7stub_atEi(ptr noundef nonnull align 8 dereferenceable(48) %3, i32 noundef %8)
  br label %11

10:                                               ; preds = %1
  br label %11

11:                                               ; preds = %10, %6
  %12 = phi ptr [ %9, %6 ], [ null, %10 ]
  ret ptr %12
}

; Function Attrs: mustprogress nounwind uwtable
define hidden void @_ZN9StubQueue12remove_firstEv(ptr noundef nonnull align 8 dereferenceable(48) %0) #1 align 2 {
  %2 = alloca ptr, align 8
  %3 = alloca ptr, align 8
  store ptr %0, ptr %2, align 8
  %4 = load ptr, ptr %2, align 8
  %5 = call noundef i32 @_ZNK9StubQueue15number_of_stubsEv(ptr noundef nonnull align 8 dereferenceable(48) %4)
  %6 = icmp eq i32 %5, 0
  br i1 %6, label %7, label %8

7:                                                ; preds = %1
  br label %43

8:                                                ; preds = %1
  %9 = call noundef ptr @_ZNK9StubQueue5firstEv(ptr noundef nonnull align 8 dereferenceable(48) %4)
  store ptr %9, ptr %3, align 8
  %10 = load ptr, ptr %3, align 8
  call void @_ZN9StubQueue13stub_finalizeEP4Stub(ptr noundef nonnull align 8 dereferenceable(48) %4, ptr noundef %10)
  %11 = load ptr, ptr %3, align 8
  %12 = call noundef i32 @_ZNK9StubQueue9stub_sizeEP4Stub(ptr noundef nonnull align 8 dereferenceable(48) %4, ptr noundef %11)
  %13 = getelementptr inbounds %class.StubQueue, ptr %4, i32 0, i32 4
  %14 = load i32, ptr %13, align 8
  %15 = add nsw i32 %14, %12
  store i32 %15, ptr %13, align 8
  %16 = getelementptr inbounds %class.StubQueue, ptr %4, i32 0, i32 4
  %17 = load i32, ptr %16, align 8
  %18 = getelementptr inbounds %class.StubQueue, ptr %4, i32 0, i32 5
  %19 = load i32, ptr %18, align 4
  %20 = icmp eq i32 %17, %19
  br i1 %20, label %21, label %27

21:                                               ; preds = %8
  %22 = getelementptr inbounds %class.StubQueue, ptr %4, i32 0, i32 4
  store i32 0, ptr %22, align 8
  %23 = getelementptr inbounds %class.StubQueue, ptr %4, i32 0, i32 5
  store i32 0, ptr %23, align 4
  %24 = getelementptr inbounds %class.StubQueue, ptr %4, i32 0, i32 2
  %25 = load i32, ptr %24, align 8
  %26 = getelementptr inbounds %class.StubQueue, ptr %4, i32 0, i32 3
  store i32 %25, ptr %26, align 4
  br label %39

27:                                               ; preds = %8
  %28 = getelementptr inbounds %class.StubQueue, ptr %4, i32 0, i32 4
  %29 = load i32, ptr %28, align 8
  %30 = getelementptr inbounds %class.StubQueue, ptr %4, i32 0, i32 3
  %31 = load i32, ptr %30, align 4
  %32 = icmp eq i32 %29, %31
  br i1 %32, label %33, label %38

33:                                               ; preds = %27
  %34 = getelementptr inbounds %class.StubQueue, ptr %4, i32 0, i32 2
  %35 = load i32, ptr %34, align 8
  %36 = getelementptr inbounds %class.StubQueue, ptr %4, i32 0, i32 3
  store i32 %35, ptr %36, align 4
  %37 = getelementptr inbounds %class.StubQueue, ptr %4, i32 0, i32 4
  store i32 0, ptr %37, align 8
  br label %38

38:                                               ; preds = %33, %27
  br label %39

39:                                               ; preds = %38, %21
  %40 = getelementptr inbounds %class.StubQueue, ptr %4, i32 0, i32 6
  %41 = load i32, ptr %40, align 8
  %42 = add nsw i32 %41, -1
  store i32 %42, ptr %40, align 8
  br label %43

43:                                               ; preds = %39, %7
  ret void
}

; Function Attrs: mustprogress nounwind uwtable
define linkonce_odr hidden noundef i32 @_Z4MIN2IiET_S0_S0_(i32 noundef %0, i32 noundef %1) #1 comdat {
  %3 = alloca i32, align 4
  %4 = alloca i32, align 4
  store i32 %0, ptr %3, align 4
  store i32 %1, ptr %4, align 4
  %5 = load i32, ptr %3, align 4
  %6 = load i32, ptr %4, align 4
  %7 = icmp slt i32 %5, %6
  br i1 %7, label %8, label %10

8:                                                ; preds = %2
  %9 = load i32, ptr %3, align 4
  br label %12

10:                                               ; preds = %2
  %11 = load i32, ptr %4, align 4
  br label %12

12:                                               ; preds = %10, %8
  %13 = phi i32 [ %9, %8 ], [ %11, %10 ]
  ret i32 %13
}

; Function Attrs: mustprogress nounwind uwtable
define linkonce_odr hidden noundef i32 @_ZNK9StubQueue15number_of_stubsEv(ptr noundef nonnull align 8 dereferenceable(48) %0) #1 comdat align 2 {
  %2 = alloca ptr, align 8
  store ptr %0, ptr %2, align 8
  %3 = load ptr, ptr %2, align 8
  %4 = getelementptr inbounds %class.StubQueue, ptr %3, i32 0, i32 6
  %5 = load i32, ptr %4, align 8
  ret i32 %5
}

; Function Attrs: mustprogress nounwind uwtable
define hidden void @_ZN9StubQueue12remove_firstEi(ptr noundef nonnull align 8 dereferenceable(48) %0, i32 noundef %1) #1 align 2 {
  %3 = alloca ptr, align 8
  %4 = alloca i32, align 4
  %5 = alloca i32, align 4
  store ptr %0, ptr %3, align 8
  store i32 %1, ptr %4, align 4
  %6 = load ptr, ptr %3, align 8
  %7 = load i32, ptr %4, align 4
  %8 = call noundef i32 @_ZNK9StubQueue15number_of_stubsEv(ptr noundef nonnull align 8 dereferenceable(48) %6)
  %9 = call noundef i32 @_Z4MIN2IiET_S0_S0_(i32 noundef %7, i32 noundef %8)
  store i32 %9, ptr %5, align 4
  br label %10

10:                                               ; preds = %14, %2
  %11 = load i32, ptr %5, align 4
  %12 = add nsw i32 %11, -1
  store i32 %12, ptr %5, align 4
  %13 = icmp sgt i32 %11, 0
  br i1 %13, label %14, label %15

14:                                               ; preds = %10
  call void @_ZN9StubQueue12remove_firstEv(ptr noundef nonnull align 8 dereferenceable(48) %6)
  br label %10, !llvm.loop !8

15:                                               ; preds = %10
  ret void
}