; Function Attrs: mustprogress nounwind uwtable
define hidden void @_ZN9StubQueue12remove_firstEi(ptr nocapture noundef nonnull align 8 dereferenceable(48) %0, i32 noundef %1) local_unnamed_addr #0 align 2 {
  %3 = getelementptr inbounds i8, ptr %0, i64 32
  %4 = load i32, ptr %3, align 8
  %5 = tail call noundef i32 @llvm.smin.i32(i32 %1, i32 %4)
  %6 = icmp sgt i32 %5, 0
  br i1 %6, label %.lr.ph, label %._crit_edge

.lr.ph:                                           ; preds = %2
  %7 = getelementptr inbounds i8, ptr %0, i64 24
  %8 = getelementptr inbounds i8, ptr %0, i64 8
  %9 = getelementptr inbounds i8, ptr %0, i64 28
  %10 = getelementptr inbounds i8, ptr %0, i64 20
  %11 = getelementptr inbounds i8, ptr %0, i64 16
  %12 = icmp eq i32 %4, 0
  br i1 %12, label %._crit_edge, label %.lr.ph.split

.lr.ph.split:                                     ; preds = %.lr.ph, %_ZN9StubQueue12remove_firstEv.exit
  %13 = phi i32 [ %46, %_ZN9StubQueue12remove_firstEv.exit ], [ %4, %.lr.ph ]
  %.02 = phi i32 [ %14, %_ZN9StubQueue12remove_firstEv.exit ], [ %5, %.lr.ph ]
  %14 = add nsw i32 %.02, -1
  %15 = icmp eq i32 %13, 0
  br i1 %15, label %_ZN9StubQueue12remove_firstEv.exit, label %16

16:                                               ; preds = %.lr.ph.split
  %17 = icmp sgt i32 %13, 0
  %18 = load i32, ptr %7, align 8
  %19 = load ptr, ptr %8, align 8
  %20 = sext i32 %18 to i64
  %21 = getelementptr inbounds i8, ptr %19, i64 %20
  %22 = select i1 %17, ptr %21, ptr null
  %23 = load ptr, ptr %0, align 8
  %24 = load ptr, ptr %23, align 8
  %25 = getelementptr inbounds i8, ptr %24, i64 8
  %26 = load ptr, ptr %25, align 8
  tail call void %26(ptr noundef nonnull align 8 dereferenceable(8) %23, ptr noundef %22) #6
  %27 = load ptr, ptr %0, align 8
  %28 = load ptr, ptr %27, align 8
  %29 = getelementptr inbounds i8, ptr %28, i64 16
  %30 = load ptr, ptr %29, align 8
  %31 = tail call noundef i32 %30(ptr noundef nonnull align 8 dereferenceable(8) %27, ptr noundef %22) #6
  %32 = load i32, ptr %7, align 8
  %33 = add nsw i32 %32, %31
  store i32 %33, ptr %7, align 8
  %34 = load i32, ptr %9, align 4
  %35 = icmp eq i32 %33, %34
  br i1 %35, label %36, label %38

36:                                               ; preds = %16
  store i32 0, ptr %7, align 8
  store i32 0, ptr %9, align 4
  %37 = load i32, ptr %11, align 8
  store i32 %37, ptr %10, align 4
  br label %43

38:                                               ; preds = %16
  %39 = load i32, ptr %10, align 4
  %40 = icmp eq i32 %33, %39
  br i1 %40, label %41, label %43

41:                                               ; preds = %38
  %42 = load i32, ptr %11, align 8
  store i32 %42, ptr %10, align 4
  store i32 0, ptr %7, align 8
  br label %43

43:                                               ; preds = %41, %38, %36
  %44 = load i32, ptr %3, align 8
  %45 = add nsw i32 %44, -1
  store i32 %45, ptr %3, align 8
  br label %_ZN9StubQueue12remove_firstEv.exit

_ZN9StubQueue12remove_firstEv.exit:               ; preds = %.lr.ph.split, %43
  %46 = phi i32 [ 0, %.lr.ph.split ], [ %45, %43 ]
  %47 = icmp ugt i32 %.02, 1
  br i1 %47, label %.lr.ph.split, label %._crit_edge, !llvm.loop !6

._crit_edge:                                      ; preds = %_ZN9StubQueue12remove_firstEv.exit, %.lr.ph, %2
  ret void
}